(lp0
S'poi'
p1
aS'bonus'
p2
aS'other'
p3
aS'expenses'
p4
aS'total_payments'
p5
aS'restricted_stock'
p6
aS'total_stock_value'
p7
aS'long_term_incentive'
p8
aS'exercised_stock_options'
p9
aS'shared_receipt_with_poi'
p10
aS'from_this_person_to_poi'
p11
aS'from_poi_to_this_person'
p12
aS'fraction_from_poi'
p13
aS'fraction_to_poi'
p14
a.